target datalayout = "e-m:e-p270:32:32-p271:32:32-p272:64:64-i64:64-i128:128-f80:128-n8:16:32:64-S128"
target triple = "x86_64-pc-linux-gnu"

; Function Attrs: nounwind uwtable
define internal ptr @Unroll1Word(ptr noundef %0, ptr noundef %1, ptr noundef %2, i32 noundef %3) #0 {
  %5 = alloca ptr, align 8
  %6 = alloca ptr, align 8
  %7 = alloca ptr, align 8
  %8 = alloca i32, align 4
  store ptr %0, ptr %5, align 8
  store ptr %1, ptr %6, align 8
  store ptr %2, ptr %7, align 8
  store i32 %3, ptr %8, align 4
  %9 = load ptr, ptr %7, align 8
  %10 = load i16, ptr %9, align 2
  %11 = load ptr, ptr %6, align 8
  %12 = getelementptr inbounds i16, ptr %11, i64 2
  store i16 %10, ptr %12, align 2
  %13 = load ptr, ptr %6, align 8
  %14 = getelementptr inbounds i16, ptr %13, i64 1
  store i16 %10, ptr %14, align 2
  %15 = load ptr, ptr %6, align 8
  %16 = getelementptr inbounds i16, ptr %15, i64 0
  store i16 %10, ptr %16, align 2
  %17 = load ptr, ptr %7, align 8
  %18 = getelementptr inbounds i8, ptr %17, i64 2
  store ptr %18, ptr %7, align 8
  %19 = load ptr, ptr %7, align 8
  ret ptr %19
}