; Function Attrs: mustprogress nofree norecurse nosync nounwind willreturn memory(argmem: readwrite) uwtable
define internal nonnull ptr @Unroll1Word(ptr nocapture readnone %0, ptr nocapture noundef writeonly %1, ptr noundef readonly %2, i32 %3) #3 {
  %5 = load i16, ptr %2, align 2
  %6 = getelementptr inbounds i8, ptr %1, i64 4
  store i16 %5, ptr %6, align 2
  %7 = getelementptr inbounds i8, ptr %1, i64 2
  store i16 %5, ptr %7, align 2
  store i16 %5, ptr %1, align 2
  %8 = getelementptr inbounds i8, ptr %2, i64 2
  ret ptr %8
}